target datalayout = "e-m:e-p270:32:32-p271:32:32-p272:64:64-i64:64-i128:128-f80:128-n8:16:32:64-S128"
target triple = "x86_64-pc-linux-gnu"

%struct.zrange_result_handler = type { i32, ptr, ptr, ptr, ptr, i32, i32, ptr, ptr, ptr, ptr }

@.str.1 = private unnamed_addr constant [9 x i8] c"t_zset.c\00", align 1
@.str.79 = private unnamed_addr constant [7 x i8] c"retval\00", align 1

; Function Attrs: nounwind uwtable
define internal void @zrangeResultEmitCBufferForStore(ptr noundef %0, ptr noundef %1, i64 noundef %2, double noundef %3) #0 {
  %5 = alloca ptr, align 8
  %6 = alloca ptr, align 8
  %7 = alloca i64, align 8
  %8 = alloca double, align 8
  %9 = alloca double, align 8
  %10 = alloca i32, align 4
  %11 = alloca ptr, align 8
  %12 = alloca i32, align 4
  store ptr %0, ptr %5, align 8, !tbaa !208
  store ptr %1, ptr %6, align 8, !tbaa !45
  store i64 %2, ptr %7, align 8, !tbaa !31
  store double %3, ptr %8, align 8, !tbaa !9
  call void @llvm.lifetime.start.p0(i64 8, ptr %9) #12
  call void @llvm.lifetime.start.p0(i64 4, ptr %10) #12
  store i32 0, ptr %10, align 4, !tbaa !5
  call void @llvm.lifetime.start.p0(i64 8, ptr %11) #12
  %13 = load ptr, ptr %6, align 8, !tbaa !45
  %14 = load i64, ptr %7, align 8, !tbaa !31
  %15 = call ptr @sdsnewlen(ptr noundef %13, i64 noundef %14)
  store ptr %15, ptr %11, align 8, !tbaa !11
  call void @llvm.lifetime.start.p0(i64 4, ptr %12) #12
  %16 = load ptr, ptr %5, align 8, !tbaa !208
  %17 = getelementptr inbounds nuw %struct.zrange_result_handler, ptr %16, i32 0, i32 3
  %18 = load ptr, ptr %17, align 8, !tbaa !257
  %19 = load double, ptr %8, align 8, !tbaa !9
  %20 = load ptr, ptr %11, align 8, !tbaa !11
  %21 = call i32 @zsetAdd(ptr noundef %18, double noundef %19, ptr noundef %20, i32 noundef 0, ptr noundef %10, ptr noundef %9)
  store i32 %21, ptr %12, align 4, !tbaa !5
  %22 = load ptr, ptr %11, align 8, !tbaa !11
  call void @sdsfree(ptr noundef %22)
  %23 = load i32, ptr %12, align 4, !tbaa !5
  %24 = icmp ne i32 %23, 0
  %25 = xor i1 %24, true
  %26 = xor i1 %25, true
  %27 = zext i1 %26 to i32
  %28 = sext i32 %27 to i64
  %29 = call i64 @llvm.expect.i64(i64 %28, i64 1)
  %30 = icmp ne i64 %29, 0
  br i1 %30, label %31, label %32

31:                                               ; preds = %4
  br label %34

32:                                               ; preds = %4
  call void @_serverAssert(ptr noundef @.str.79, ptr noundef @.str.1, i32 noundef 3067)
  call void @abort() #14
  unreachable

33:                                               ; No predecessors!
  br label %34

34:                                               ; preds = %33, %31
  call void @llvm.lifetime.end.p0(i64 4, ptr %12) #12
  call void @llvm.lifetime.end.p0(i64 8, ptr %11) #12
  call void @llvm.lifetime.end.p0(i64 4, ptr %10) #12
  call void @llvm.lifetime.end.p0(i64 8, ptr %9) #12
  ret void
}