; Function Attrs: nounwind uwtable
define internal void @zrangeResultEmitCBufferForStore(ptr noundef readonly captures(none) %0, ptr noundef %1, i64 noundef %2, double noundef %3) #0 {
  %5 = alloca double, align 8
  %6 = alloca i32, align 4
  call void @llvm.lifetime.start.p0(i64 8, ptr nonnull %5) #18
  call void @llvm.lifetime.start.p0(i64 4, ptr nonnull %6) #18
  %7 = tail call ptr @sdsnewlen(ptr noundef %1, i64 noundef %2) #18
  %8 = getelementptr inbounds nuw i8, ptr %0, i64 24
  %9 = load ptr, ptr %8, align 8, !tbaa !229
  %10 = call i32 @zsetAdd(ptr noundef %9, double noundef %3, ptr noundef %7, i32 noundef 0, ptr noundef nonnull %6, ptr noundef nonnull %5)
  call void @sdsfree(ptr noundef %7) #18
  %.not = icmp eq i32 %10, 0
  br i1 %.not, label %11, label %12, !prof !40

11:                                               ; preds = %4
  call void @_serverAssert(ptr noundef nonnull @.str.79, ptr noundef nonnull @.str.1, i32 noundef 3067) #18
  call void @abort() #19
  unreachable

12:                                               ; preds = %4
  call void @llvm.lifetime.end.p0(i64 4, ptr nonnull %6) #18
  call void @llvm.lifetime.end.p0(i64 8, ptr nonnull %5) #18
  ret void
}